target datalayout = "e-m:e-p270:32:32-p271:32:32-p272:64:64-i64:64-i128:128-f80:128-n8:16:32:64-S128"
target triple = "x86_64-pc-linux-gnu"

%struct.ossl_record_layer_st = type { ptr, ptr, i32, i32, i32, i32, i32, ptr, i16, ptr, ptr, ptr, i64, i32, [33 x %struct.tls_buffer_st], i64, i64, %struct.tls_buffer_st, [32 x %struct.tls_rl_record_st], i64, i64, i64, i32, ptr, i64, [8 x i8], i32, i32, i64, i32, ptr, ptr, i64, ptr, ptr, i32, i32, i32, i64, i64, i64, [64 x i8], i32, i32, i32, ptr, ptr, i32, i32, i64, ptr, ptr, %struct.dtls_bitmap_st, %struct.dtls_bitmap_st, i32, ptr, ptr, ptr, ptr, ptr, i64, ptr }
%struct.tls_buffer_st = type { ptr, i64, i64, i64, i64, i32, i32 }
%struct.tls_rl_record_st = type { i32, i32, i64, i64, i64, ptr, ptr, ptr, i16, [8 x i8] }
%struct.dtls_bitmap_st = type { i64, [8 x i8] }
%struct.ossl_record_template_st = type { i8, i32, ptr, i64 }

@.str = private unnamed_addr constant [43 x i8] c"../openssl/ssl/record/methods/tls13_meth.c\00", align 1
@__func__.tls13_add_record_padding = private unnamed_addr constant [25 x i8] c"tls13_add_record_padding\00", align 1

; Function Attrs: nounwind uwtable
define internal i32 @tls13_add_record_padding(ptr noundef %0, ptr noundef %1, ptr noundef %2, ptr noundef %3) #0 {
  %5 = alloca i32, align 4
  %6 = alloca ptr, align 8
  %7 = alloca ptr, align 8
  %8 = alloca ptr, align 8
  %9 = alloca ptr, align 8
  %10 = alloca i64, align 8
  %11 = alloca i32, align 4
  %12 = alloca i64, align 8
  %13 = alloca i64, align 8
  %14 = alloca i64, align 8
  %15 = alloca i64, align 8
  %16 = alloca i64, align 8
  store ptr %0, ptr %6, align 8, !tbaa !3
  store ptr %1, ptr %7, align 8, !tbaa !64
  store ptr %2, ptr %8, align 8, !tbaa !68
  store ptr %3, ptr %9, align 8, !tbaa !47
  call void @llvm.lifetime.start.p0(i64 8, ptr %10) #4
  %17 = load ptr, ptr %6, align 8, !tbaa !3
  %18 = getelementptr inbounds nuw %struct.ossl_record_layer_st, ptr %17, i32 0, i32 47
  %19 = load i32, ptr %18, align 8, !tbaa !62
  %20 = icmp ne i32 %19, 0
  br i1 %20, label %21, label %28

21:                                               ; preds = %4
  %22 = load ptr, ptr %7, align 8, !tbaa !64
  %23 = getelementptr inbounds nuw %struct.ossl_record_template_st, ptr %22, i32 0, i32 0
  %24 = load i8, ptr %23, align 8, !tbaa !66
  %25 = zext i8 %24 to i32
  %26 = icmp ne i32 %25, 21
  br i1 %26, label %27, label %28

27:                                               ; preds = %21
  store i32 1, ptr %5, align 4
  store i32 1, ptr %11, align 4
  br label %189

28:                                               ; preds = %21, %4
  %29 = load ptr, ptr %8, align 8, !tbaa !68
  %30 = load ptr, ptr %7, align 8, !tbaa !64
  %31 = getelementptr inbounds nuw %struct.ossl_record_template_st, ptr %30, i32 0, i32 0
  %32 = load i8, ptr %31, align 8, !tbaa !66
  %33 = zext i8 %32 to i64
  %34 = call i32 @WPACKET_put_bytes__(ptr noundef %29, i64 noundef %33, i64 noundef 1)
  %35 = icmp ne i32 %34, 0
  br i1 %35, label %38, label %36

36:                                               ; preds = %28
  call void @ERR_new()
  call void @ERR_set_debug(ptr noundef @.str, i32 noundef 335, ptr noundef @__func__.tls13_add_record_padding)
  %37 = load ptr, ptr %6, align 8, !tbaa !3
  call void (ptr, i32, i32, ptr, ...) @ossl_rlayer_fatal(ptr noundef %37, i32 noundef 80, i32 noundef 786691, ptr noundef null)
  store i32 0, ptr %5, align 4
  store i32 1, ptr %11, align 4
  br label %189

38:                                               ; preds = %28
  %39 = load ptr, ptr %9, align 8, !tbaa !47
  %40 = getelementptr inbounds nuw %struct.tls_rl_record_st, ptr %39, i32 0, i32 2
  %41 = load i64, ptr %40, align 8, !tbaa !55
  %42 = add i64 %41, 1
  store i64 %42, ptr %40, align 8, !tbaa !55
  %43 = load ptr, ptr %9, align 8, !tbaa !47
  %44 = getelementptr inbounds nuw %struct.tls_rl_record_st, ptr %43, i32 0, i32 2
  %45 = load i64, ptr %44, align 8, !tbaa !55
  store i64 %45, ptr %10, align 8, !tbaa !12
  %46 = load i64, ptr %10, align 8, !tbaa !12
  %47 = load ptr, ptr %6, align 8, !tbaa !3
  %48 = getelementptr inbounds nuw %struct.ossl_record_layer_st, ptr %47, i32 0, i32 36
  %49 = load i32, ptr %48, align 4, !tbaa !70
  %50 = zext i32 %49 to i64
  %51 = icmp ult i64 %46, %50
  br i1 %51, label %52, label %188

52:                                               ; preds = %38
  call void @llvm.lifetime.start.p0(i64 8, ptr %12) #4
  store i64 0, ptr %12, align 8, !tbaa !12
  call void @llvm.lifetime.start.p0(i64 8, ptr %13) #4
  %53 = load ptr, ptr %6, align 8, !tbaa !3
  %54 = getelementptr inbounds nuw %struct.ossl_record_layer_st, ptr %53, i32 0, i32 36
  %55 = load i32, ptr %54, align 4, !tbaa !70
  %56 = zext i32 %55 to i64
  %57 = load i64, ptr %10, align 8, !tbaa !12
  %58 = sub i64 %56, %57
  store i64 %58, ptr %13, align 8, !tbaa !12
  %59 = load ptr, ptr %6, align 8, !tbaa !3
  %60 = getelementptr inbounds nuw %struct.ossl_record_layer_st, ptr %59, i32 0, i32 59
  %61 = load ptr, ptr %60, align 8, !tbaa !71
  %62 = icmp ne ptr %61, null
  br i1 %62, label %63, label %76

63:                                               ; preds = %52
  %64 = load ptr, ptr %6, align 8, !tbaa !3
  %65 = getelementptr inbounds nuw %struct.ossl_record_layer_st, ptr %64, i32 0, i32 59
  %66 = load ptr, ptr %65, align 8, !tbaa !71
  %67 = load ptr, ptr %6, align 8, !tbaa !3
  %68 = getelementptr inbounds nuw %struct.ossl_record_layer_st, ptr %67, i32 0, i32 55
  %69 = load ptr, ptr %68, align 8, !tbaa !72
  %70 = load ptr, ptr %7, align 8, !tbaa !64
  %71 = getelementptr inbounds nuw %struct.ossl_record_template_st, ptr %70, i32 0, i32 0
  %72 = load i8, ptr %71, align 8, !tbaa !66
  %73 = zext i8 %72 to i32
  %74 = load i64, ptr %10, align 8, !tbaa !12
  %75 = call i64 %66(ptr noundef %69, i32 noundef %73, i64 noundef %74)
  store i64 %75, ptr %12, align 8, !tbaa !12
  br label %162

76:                                               ; preds = %52
  %77 = load ptr, ptr %6, align 8, !tbaa !3
  %78 = getelementptr inbounds nuw %struct.ossl_record_layer_st, ptr %77, i32 0, i32 39
  %79 = load i64, ptr %78, align 8, !tbaa !73
  %80 = icmp ugt i64 %79, 0
  br i1 %80, label %86, label %81

81:                                               ; preds = %76
  %82 = load ptr, ptr %6, align 8, !tbaa !3
  %83 = getelementptr inbounds nuw %struct.ossl_record_layer_st, ptr %82, i32 0, i32 40
  %84 = load i64, ptr %83, align 8, !tbaa !74
  %85 = icmp ugt i64 %84, 0
  br i1 %85, label %86, label %161

86:                                               ; preds = %81, %76
  call void @llvm.lifetime.start.p0(i64 8, ptr %14) #4
  call void @llvm.lifetime.start.p0(i64 8, ptr %15) #4
  store i64 0, ptr %15, align 8, !tbaa !12
  call void @llvm.lifetime.start.p0(i64 8, ptr %16) #4
  %87 = load ptr, ptr %7, align 8, !tbaa !64
  %88 = getelementptr inbounds nuw %struct.ossl_record_template_st, ptr %87, i32 0, i32 0
  %89 = load i8, ptr %88, align 8, !tbaa !66
  %90 = zext i8 %89 to i32
  %91 = icmp eq i32 %90, 22
  br i1 %91, label %92, label %101

92:                                               ; preds = %86
  %93 = load ptr, ptr %6, align 8, !tbaa !3
  %94 = getelementptr inbounds nuw %struct.ossl_record_layer_st, ptr %93, i32 0, i32 40
  %95 = load i64, ptr %94, align 8, !tbaa !74
  %96 = icmp ugt i64 %95, 0
  br i1 %96, label %97, label %101

97:                                               ; preds = %92
  %98 = load ptr, ptr %6, align 8, !tbaa !3
  %99 = getelementptr inbounds nuw %struct.ossl_record_layer_st, ptr %98, i32 0, i32 40
  %100 = load i64, ptr %99, align 8, !tbaa !74
  store i64 %100, ptr %15, align 8, !tbaa !12
  br label %133

101:                                              ; preds = %92, %86
  %102 = load ptr, ptr %7, align 8, !tbaa !64
  %103 = getelementptr inbounds nuw %struct.ossl_record_template_st, ptr %102, i32 0, i32 0
  %104 = load i8, ptr %103, align 8, !tbaa !66
  %105 = zext i8 %104 to i32
  %106 = icmp eq i32 %105, 21
  br i1 %106, label %107, label %116

107:                                              ; preds = %101
  %108 = load ptr, ptr %6, align 8, !tbaa !3
  %109 = getelementptr inbounds nuw %struct.ossl_record_layer_st, ptr %108, i32 0, i32 40
  %110 = load i64, ptr %109, align 8, !tbaa !74
  %111 = icmp ugt i64 %110, 0
  br i1 %111, label %112, label %116

112:                                              ; preds = %107
  %113 = load ptr, ptr %6, align 8, !tbaa !3
  %114 = getelementptr inbounds nuw %struct.ossl_record_layer_st, ptr %113, i32 0, i32 40
  %115 = load i64, ptr %114, align 8, !tbaa !74
  store i64 %115, ptr %15, align 8, !tbaa !12
  br label %132

116:                                              ; preds = %107, %101
  %117 = load ptr, ptr %7, align 8, !tbaa !64
  %118 = getelementptr inbounds nuw %struct.ossl_record_template_st, ptr %117, i32 0, i32 0
  %119 = load i8, ptr %118, align 8, !tbaa !66
  %120 = zext i8 %119 to i32
  %121 = icmp eq i32 %120, 23
  br i1 %121, label %122, label %131

122:                                              ; preds = %116
  %123 = load ptr, ptr %6, align 8, !tbaa !3
  %124 = getelementptr inbounds nuw %struct.ossl_record_layer_st, ptr %123, i32 0, i32 39
  %125 = load i64, ptr %124, align 8, !tbaa !73
  %126 = icmp ugt i64 %125, 0
  br i1 %126, label %127, label %131

127:                                              ; preds = %122
  %128 = load ptr, ptr %6, align 8, !tbaa !3
  %129 = getelementptr inbounds nuw %struct.ossl_record_layer_st, ptr %128, i32 0, i32 39
  %130 = load i64, ptr %129, align 8, !tbaa !73
  store i64 %130, ptr %15, align 8, !tbaa !12
  br label %131

131:                                              ; preds = %127, %122, %116
  br label %132

132:                                              ; preds = %131, %112
  br label %133

133:                                              ; preds = %132, %97
  %134 = load i64, ptr %15, align 8, !tbaa !12
  %135 = icmp ugt i64 %134, 0
  br i1 %135, label %136, label %160

136:                                              ; preds = %133
  %137 = load i64, ptr %15, align 8, !tbaa !12
  %138 = sub i64 %137, 1
  store i64 %138, ptr %14, align 8, !tbaa !12
  %139 = load i64, ptr %15, align 8, !tbaa !12
  %140 = load i64, ptr %14, align 8, !tbaa !12
  %141 = and i64 %139, %140
  %142 = icmp eq i64 %141, 0
  br i1 %142, label %143, label %147

143:                                              ; preds = %136
  %144 = load i64, ptr %10, align 8, !tbaa !12
  %145 = load i64, ptr %14, align 8, !tbaa !12
  %146 = and i64 %144, %145
  store i64 %146, ptr %16, align 8, !tbaa !12
  br label %151

147:                                              ; preds = %136
  %148 = load i64, ptr %10, align 8, !tbaa !12
  %149 = load i64, ptr %15, align 8, !tbaa !12
  %150 = urem i64 %148, %149
  store i64 %150, ptr %16, align 8, !tbaa !12
  br label %151

151:                                              ; preds = %147, %143
  %152 = load i64, ptr %16, align 8, !tbaa !12
  %153 = icmp eq i64 %152, 0
  br i1 %153, label %154, label %155

154:                                              ; preds = %151
  store i64 0, ptr %12, align 8, !tbaa !12
  br label %159

155:                                              ; preds = %151
  %156 = load i64, ptr %15, align 8, !tbaa !12
  %157 = load i64, ptr %16, align 8, !tbaa !12
  %158 = sub i64 %156, %157
  store i64 %158, ptr %12, align 8, !tbaa !12
  br label %159

159:                                              ; preds = %155, %154
  br label %160

160:                                              ; preds = %159, %133
  call void @llvm.lifetime.end.p0(i64 8, ptr %16) #4
  call void @llvm.lifetime.end.p0(i64 8, ptr %15) #4
  call void @llvm.lifetime.end.p0(i64 8, ptr %14) #4
  br label %161

161:                                              ; preds = %160, %81
  br label %162

162:                                              ; preds = %161, %63
  %163 = load i64, ptr %12, align 8, !tbaa !12
  %164 = icmp ugt i64 %163, 0
  br i1 %164, label %165, label %184

165:                                              ; preds = %162
  %166 = load i64, ptr %12, align 8, !tbaa !12
  %167 = load i64, ptr %13, align 8, !tbaa !12
  %168 = icmp ugt i64 %166, %167
  br i1 %168, label %169, label %171

169:                                              ; preds = %165
  %170 = load i64, ptr %13, align 8, !tbaa !12
  store i64 %170, ptr %12, align 8, !tbaa !12
  br label %171

171:                                              ; preds = %169, %165
  %172 = load ptr, ptr %8, align 8, !tbaa !68
  %173 = load i64, ptr %12, align 8, !tbaa !12
  %174 = call i32 @WPACKET_memset(ptr noundef %172, i32 noundef 0, i64 noundef %173)
  %175 = icmp ne i32 %174, 0
  br i1 %175, label %178, label %176

176:                                              ; preds = %171
  call void @ERR_new()
  call void @ERR_set_debug(ptr noundef @.str, i32 noundef 398, ptr noundef @__func__.tls13_add_record_padding)
  %177 = load ptr, ptr %6, align 8, !tbaa !3
  call void (ptr, i32, i32, ptr, ...) @ossl_rlayer_fatal(ptr noundef %177, i32 noundef 80, i32 noundef 786691, ptr noundef null)
  store i32 0, ptr %5, align 4
  store i32 1, ptr %11, align 4
  br label %185

178:                                              ; preds = %171
  %179 = load i64, ptr %12, align 8, !tbaa !12
  %180 = load ptr, ptr %9, align 8, !tbaa !47
  %181 = getelementptr inbounds nuw %struct.tls_rl_record_st, ptr %180, i32 0, i32 2
  %182 = load i64, ptr %181, align 8, !tbaa !55
  %183 = add i64 %182, %179
  store i64 %183, ptr %181, align 8, !tbaa !55
  br label %184

184:                                              ; preds = %178, %162
  store i32 0, ptr %11, align 4
  br label %185

185:                                              ; preds = %184, %176
  call void @llvm.lifetime.end.p0(i64 8, ptr %13) #4
  call void @llvm.lifetime.end.p0(i64 8, ptr %12) #4
  %186 = load i32, ptr %11, align 4
  switch i32 %186, label %189 [
    i32 0, label %187
  ]

187:                                              ; preds = %185
  br label %188

188:                                              ; preds = %187, %38
  store i32 1, ptr %5, align 4
  store i32 1, ptr %11, align 4
  br label %189

189:                                              ; preds = %188, %185, %36, %27
  call void @llvm.lifetime.end.p0(i64 8, ptr %10) #4
  %190 = load i32, ptr %5, align 4
  ret i32 %190
}