; Function Attrs: nounwind uwtable
define internal range(i32 0, 2) i32 @tls13_add_record_padding(ptr noundef %0, ptr noundef readonly captures(none) %1, ptr noundef %2, ptr noundef captures(none) %3) #0 {
  %5 = getelementptr inbounds nuw i8, ptr %0, i64 4304
  %6 = load i32, ptr %5, align 8, !tbaa !45
  %.not = icmp eq i32 %6, 0
  %.pre = load i8, ptr %1, align 8, !tbaa !47
  %.not60 = icmp eq i8 %.pre, 21
  %or.cond = select i1 %.not, i1 true, i1 %.not60
  br i1 %or.cond, label %7, label %.thread84

7:                                                ; preds = %4
  %8 = zext i8 %.pre to i64
  %9 = tail call i32 @WPACKET_put_bytes__(ptr noundef %2, i64 noundef %8, i64 noundef 1) #6
  %.not61 = icmp eq i32 %9, 0
  br i1 %.not61, label %10, label %11

10:                                               ; preds = %7
  tail call void @ERR_new() #6
  tail call void @ERR_set_debug(ptr noundef nonnull @.str, i32 noundef 335, ptr noundef nonnull @__func__.tls13_add_record_padding) #6
  tail call void (ptr, i32, i32, ptr, ...) @ossl_rlayer_fatal(ptr noundef nonnull %0, i32 noundef 80, i32 noundef 786691, ptr noundef null) #6
  br label %.thread84

11:                                               ; preds = %7
  %12 = getelementptr inbounds nuw i8, ptr %3, i64 8
  %13 = load i64, ptr %12, align 8, !tbaa !38
  %14 = add i64 %13, 1
  store i64 %14, ptr %12, align 8, !tbaa !38
  %15 = getelementptr inbounds nuw i8, ptr %0, i64 4172
  %16 = load i32, ptr %15, align 4, !tbaa !49
  %17 = zext i32 %16 to i64
  %18 = icmp ult i64 %14, %17
  br i1 %18, label %19, label %.thread84

19:                                               ; preds = %11
  %20 = sub nuw nsw i64 %17, %14
  %21 = getelementptr inbounds nuw i8, ptr %0, i64 4408
  %22 = load ptr, ptr %21, align 8, !tbaa !50
  %.not62 = icmp eq ptr %22, null
  br i1 %.not62, label %29, label %23

23:                                               ; preds = %19
  %24 = getelementptr inbounds nuw i8, ptr %0, i64 4376
  %25 = load ptr, ptr %24, align 8, !tbaa !51
  %26 = load i8, ptr %1, align 8, !tbaa !47
  %27 = zext i8 %26 to i32
  %28 = tail call i64 %22(ptr noundef %25, i32 noundef %27, i64 noundef %14) #6
  br label %54

29:                                               ; preds = %19
  %30 = getelementptr inbounds nuw i8, ptr %0, i64 4192
  %31 = load i64, ptr %30, align 8, !tbaa !52
  %.not63 = icmp eq i64 %31, 0
  br i1 %.not63, label %32, label %35

32:                                               ; preds = %29
  %33 = getelementptr inbounds nuw i8, ptr %0, i64 4200
  %34 = load i64, ptr %33, align 8, !tbaa !53
  %.not64 = icmp eq i64 %34, 0
  br i1 %.not64, label %.thread84, label %35

35:                                               ; preds = %32, %29
  %36 = load i8, ptr %1, align 8, !tbaa !47
  switch i8 %36, label %.thread84 [
    i8 22, label %37
    i8 21, label %40
    i8 23, label %43
  ]

37:                                               ; preds = %35
  %38 = getelementptr inbounds nuw i8, ptr %0, i64 4200
  %39 = load i64, ptr %38, align 8, !tbaa !53
  %.not65 = icmp eq i64 %39, 0
  br i1 %.not65, label %.thread84, label %.thread79

40:                                               ; preds = %35
  %41 = getelementptr inbounds nuw i8, ptr %0, i64 4200
  %42 = load i64, ptr %41, align 8, !tbaa !53
  %.not66 = icmp eq i64 %42, 0
  br i1 %.not66, label %.thread84, label %.thread79

43:                                               ; preds = %35
  br i1 %.not63, label %.thread84, label %.thread79

.thread79:                                        ; preds = %40, %37, %43
  %.04882 = phi i64 [ %31, %43 ], [ %42, %40 ], [ %39, %37 ]
  %44 = tail call range(i64 1, 65) i64 @llvm.ctpop.i64(i64 %.04882)
  %45 = icmp samesign ult i64 %44, 2
  br i1 %45, label %46, label %49

46:                                               ; preds = %.thread79
  %47 = add i64 %.04882, -1
  %48 = and i64 %47, %14
  br label %51

49:                                               ; preds = %.thread79
  %50 = urem i64 %14, %.04882
  br label %51

51:                                               ; preds = %49, %46
  %.0 = phi i64 [ %48, %46 ], [ %50, %49 ]
  %52 = icmp eq i64 %.0, 0
  %53 = sub i64 %.04882, %.0
  br i1 %52, label %.thread84, label %54

54:                                               ; preds = %51, %23
  %.051 = phi i64 [ %28, %23 ], [ %53, %51 ]
  %.not69 = icmp eq i64 %.051, 0
  br i1 %.not69, label %.thread84, label %55

55:                                               ; preds = %54
  %spec.select71 = tail call i64 @llvm.umin.i64(i64 %.051, i64 %20)
  %56 = tail call i32 @WPACKET_memset(ptr noundef %2, i32 noundef 0, i64 noundef %spec.select71) #6
  %.not70 = icmp eq i32 %56, 0
  br i1 %.not70, label %.critedge, label %57

.critedge:                                        ; preds = %55
  tail call void @ERR_new() #6
  tail call void @ERR_set_debug(ptr noundef nonnull @.str, i32 noundef 398, ptr noundef nonnull @__func__.tls13_add_record_padding) #6
  tail call void (ptr, i32, i32, ptr, ...) @ossl_rlayer_fatal(ptr noundef nonnull %0, i32 noundef 80, i32 noundef 786691, ptr noundef null) #6
  br label %.thread84

57:                                               ; preds = %55
  %58 = load i64, ptr %12, align 8, !tbaa !38
  %59 = add i64 %58, %spec.select71
  store i64 %59, ptr %12, align 8, !tbaa !38
  br label %.thread84

.thread84:                                        ; preds = %4, %35, %51, %37, %40, %43, %32, %11, %54, %57, %.critedge, %10
  %.049 = phi i32 [ 0, %10 ], [ 0, %.critedge ], [ 1, %57 ], [ 1, %54 ], [ 1, %11 ], [ 1, %32 ], [ 1, %43 ], [ 1, %40 ], [ 1, %37 ], [ 1, %51 ], [ 1, %35 ], [ 1, %4 ]
  ret i32 %.049
}